target datalayout = "e-m:e-p270:32:32-p271:32:32-p272:64:64-i64:64-i128:128-f80:128-n8:16:32:64-S128"
target triple = "x86_64-pc-linux-gnu"

%struct.formnode = type { i16, i16, i16, i32, i32, i32, i32, i16, i16, i16, i32, ptr, ptr, ptr, ptr, ptr, ptr, ptr, ptr, ptr, ptr, ptr }
%struct.fieldnode = type { i16, i16, i16, i16, i16, i32, i32, i32, i32, i16, i16, i16, i16, i32, i32, i32, i32, ptr, ptr, ptr, ptr, ptr, ptr, ptr, ptr }

; Function Attrs: nounwind uwtable
define dso_local i32 @_nc_Synchronize_Options(ptr noundef %0, i32 noundef %1) #0 {
  %3 = alloca i32, align 4
  %4 = alloca ptr, align 8
  %5 = alloca i32, align 4
  %6 = alloca i32, align 4
  %7 = alloca i32, align 4
  %8 = alloca ptr, align 8
  %9 = alloca i32, align 4
  %10 = alloca i32, align 4
  %11 = alloca i8, align 1
  %12 = alloca i32, align 4
  store ptr %0, ptr %4, align 8, !tbaa !17
  store i32 %1, ptr %5, align 4, !tbaa !35
  call void @llvm.lifetime.start.p0(i64 4, ptr %6) #9
  call void @llvm.lifetime.start.p0(i64 4, ptr %7) #9
  call void @llvm.lifetime.start.p0(i64 8, ptr %8) #9
  call void @llvm.lifetime.start.p0(i64 4, ptr %9) #9
  store i32 0, ptr %9, align 4, !tbaa !35
  %13 = load ptr, ptr %4, align 8, !tbaa !17
  %14 = icmp ne ptr %13, null
  br i1 %14, label %16, label %15

15:                                               ; preds = %2
  store i32 -2, ptr %3, align 4
  store i32 1, ptr %10, align 4
  br label %253

16:                                               ; preds = %2
  %17 = load ptr, ptr %4, align 8, !tbaa !17
  %18 = getelementptr inbounds nuw %struct.fieldnode, ptr %17, i32 0, i32 16
  %19 = load i32, ptr %18, align 8, !tbaa !23
  store i32 %19, ptr %6, align 4, !tbaa !35
  %20 = load i32, ptr %6, align 4, !tbaa !35
  %21 = load i32, ptr %5, align 4, !tbaa !35
  %22 = xor i32 %20, %21
  store i32 %22, ptr %7, align 4, !tbaa !35
  %23 = load i32, ptr %5, align 4, !tbaa !35
  %24 = load ptr, ptr %4, align 8, !tbaa !17
  %25 = getelementptr inbounds nuw %struct.fieldnode, ptr %24, i32 0, i32 16
  store i32 %23, ptr %25, align 8, !tbaa !23
  %26 = load ptr, ptr %4, align 8, !tbaa !17
  %27 = getelementptr inbounds nuw %struct.fieldnode, ptr %26, i32 0, i32 20
  %28 = load ptr, ptr %27, align 8, !tbaa !46
  store ptr %28, ptr %8, align 8, !tbaa !4
  %29 = load ptr, ptr %8, align 8, !tbaa !4
  %30 = icmp ne ptr %29, null
  br i1 %30, label %31, label %88

31:                                               ; preds = %16
  %32 = load ptr, ptr %8, align 8, !tbaa !4
  %33 = getelementptr inbounds nuw %struct.formnode, ptr %32, i32 0, i32 15
  %34 = load ptr, ptr %33, align 8, !tbaa !16
  %35 = load ptr, ptr %4, align 8, !tbaa !17
  %36 = icmp eq ptr %34, %35
  br i1 %36, label %37, label %41

37:                                               ; preds = %31
  %38 = load i32, ptr %6, align 4, !tbaa !35
  %39 = load ptr, ptr %4, align 8, !tbaa !17
  %40 = getelementptr inbounds nuw %struct.fieldnode, ptr %39, i32 0, i32 16
  store i32 %38, ptr %40, align 8, !tbaa !23
  store i32 -14, ptr %3, align 4
  store i32 1, ptr %10, align 4
  br label %253

41:                                               ; preds = %31
  %42 = load ptr, ptr %8, align 8, !tbaa !4
  %43 = getelementptr inbounds nuw %struct.formnode, ptr %42, i32 0, i32 0
  %44 = load i16, ptr %43, align 8, !tbaa !47
  %45 = zext i16 %44 to i32
  %46 = and i32 %45, 1
  %47 = icmp ne i32 %46, 0
  br i1 %47, label %48, label %87

48:                                               ; preds = %41
  %49 = load ptr, ptr %8, align 8, !tbaa !4
  %50 = getelementptr inbounds nuw %struct.formnode, ptr %49, i32 0, i32 9
  %51 = load i16, ptr %50, align 4, !tbaa !49
  %52 = sext i16 %51 to i32
  %53 = load ptr, ptr %4, align 8, !tbaa !17
  %54 = getelementptr inbounds nuw %struct.fieldnode, ptr %53, i32 0, i32 11
  %55 = load i16, ptr %54, align 8, !tbaa !48
  %56 = sext i16 %55 to i32
  %57 = icmp eq i32 %52, %56
  br i1 %57, label %58, label %86

58:                                               ; preds = %48
  %59 = load i32, ptr %7, align 4, !tbaa !35
  %60 = and i32 %59, 1
  %61 = icmp ne i32 %60, 0
  br i1 %61, label %62, label %73

62:                                               ; preds = %58
  %63 = load i32, ptr %5, align 4, !tbaa !35
  %64 = and i32 %63, 1
  %65 = icmp ne i32 %64, 0
  br i1 %65, label %66, label %69

66:                                               ; preds = %62
  %67 = load ptr, ptr %4, align 8, !tbaa !17
  %68 = call i32 @Display_Or_Erase_Field(ptr noundef %67, i1 noundef zeroext false)
  store i32 %68, ptr %9, align 4, !tbaa !35
  br label %72

69:                                               ; preds = %62
  %70 = load ptr, ptr %4, align 8, !tbaa !17
  %71 = call i32 @Display_Or_Erase_Field(ptr noundef %70, i1 noundef zeroext true)
  store i32 %71, ptr %9, align 4, !tbaa !35
  br label %72

72:                                               ; preds = %69, %66
  br label %85

73:                                               ; preds = %58
  %74 = load i32, ptr %7, align 4, !tbaa !35
  %75 = and i32 %74, 4
  %76 = icmp ne i32 %75, 0
  br i1 %76, label %77, label %84

77:                                               ; preds = %73
  %78 = load i32, ptr %5, align 4, !tbaa !35
  %79 = and i32 %78, 1
  %80 = icmp ne i32 %79, 0
  br i1 %80, label %81, label %84

81:                                               ; preds = %77
  %82 = load ptr, ptr %4, align 8, !tbaa !17
  %83 = call i32 @Display_Or_Erase_Field(ptr noundef %82, i1 noundef zeroext false)
  store i32 %83, ptr %9, align 4, !tbaa !35
  br label %84

84:                                               ; preds = %81, %77, %73
  br label %85

85:                                               ; preds = %84, %72
  br label %86

86:                                               ; preds = %85, %48
  br label %87

87:                                               ; preds = %86, %41
  br label %88

88:                                               ; preds = %87, %16
  %89 = load i32, ptr %7, align 4, !tbaa !35
  %90 = and i32 %89, 512
  %91 = icmp ne i32 %90, 0
  br i1 %91, label %92, label %251

92:                                               ; preds = %88
  call void @llvm.lifetime.start.p0(i64 1, ptr %11) #9
  %93 = load ptr, ptr %4, align 8, !tbaa !17
  %94 = getelementptr inbounds nuw %struct.fieldnode, ptr %93, i32 0, i32 1
  %95 = load i16, ptr %94, align 2, !tbaa !28
  %96 = sext i16 %95 to i32
  %97 = load ptr, ptr %4, align 8, !tbaa !17
  %98 = getelementptr inbounds nuw %struct.fieldnode, ptr %97, i32 0, i32 8
  %99 = load i32, ptr %98, align 8, !tbaa !36
  %100 = add nsw i32 %96, %99
  %101 = icmp eq i32 %100, 1
  %102 = zext i1 %101 to i8
  store i8 %102, ptr %11, align 1, !tbaa !58
  call void @llvm.lifetime.start.p0(i64 4, ptr %12) #9
  store i32 0, ptr %12, align 4, !tbaa !35
  %103 = load i32, ptr %5, align 4, !tbaa !35
  %104 = and i32 %103, 512
  %105 = icmp ne i32 %104, 0
  br i1 %105, label %106, label %166

106:                                              ; preds = %92
  %107 = load ptr, ptr %4, align 8, !tbaa !17
  %108 = getelementptr inbounds nuw %struct.fieldnode, ptr %107, i32 0, i32 0
  %109 = load i16, ptr %108, align 8, !tbaa !37
  %110 = zext i16 %109 to i32
  %111 = and i32 %110, -9
  %112 = trunc i32 %111 to i16
  store i16 %112, ptr %108, align 8, !tbaa !37
  %113 = load i8, ptr %11, align 1, !tbaa !58, !range !60, !noundef !61
  %114 = trunc i8 %113 to i1
  br i1 %114, label %115, label %165

115:                                              ; preds = %106
  %116 = load ptr, ptr %4, align 8, !tbaa !17
  %117 = getelementptr inbounds nuw %struct.fieldnode, ptr %116, i32 0, i32 2
  %118 = load i16, ptr %117, align 4, !tbaa !30
  %119 = sext i16 %118 to i32
  %120 = load ptr, ptr %4, align 8, !tbaa !17
  %121 = getelementptr inbounds nuw %struct.fieldnode, ptr %120, i32 0, i32 6
  %122 = load i32, ptr %121, align 8, !tbaa !29
  %123 = icmp eq i32 %119, %122
  br i1 %123, label %124, label %165

124:                                              ; preds = %115
  %125 = load ptr, ptr %4, align 8, !tbaa !17
  %126 = getelementptr inbounds nuw %struct.fieldnode, ptr %125, i32 0, i32 10
  %127 = load i16, ptr %126, align 2, !tbaa !53
  %128 = sext i16 %127 to i32
  %129 = icmp ne i32 %128, 0
  br i1 %129, label %130, label %165

130:                                              ; preds = %124
  %131 = load ptr, ptr %4, align 8, !tbaa !17
  %132 = getelementptr inbounds nuw %struct.fieldnode, ptr %131, i32 0, i32 20
  %133 = load ptr, ptr %132, align 8, !tbaa !46
  %134 = icmp ne ptr %133, null
  br i1 %134, label %135, label %165

135:                                              ; preds = %130
  %136 = load ptr, ptr %4, align 8, !tbaa !17
  %137 = getelementptr inbounds nuw %struct.fieldnode, ptr %136, i32 0, i32 20
  %138 = load ptr, ptr %137, align 8, !tbaa !46
  %139 = getelementptr inbounds nuw %struct.formnode, ptr %138, i32 0, i32 0
  %140 = load i16, ptr %139, align 8, !tbaa !47
  %141 = zext i16 %140 to i32
  %142 = and i32 %141, 1
  %143 = icmp ne i32 %142, 0
  br i1 %143, label %144, label %165

144:                                              ; preds = %135
  %145 = load ptr, ptr %4, align 8, !tbaa !17
  %146 = getelementptr inbounds nuw %struct.fieldnode, ptr %145, i32 0, i32 16
  %147 = load i32, ptr %146, align 8, !tbaa !23
  %148 = and i32 %147, 1
  %149 = icmp ne i32 %148, 0
  br i1 %149, label %150, label %165

150:                                              ; preds = %144
  %151 = load ptr, ptr %4, align 8, !tbaa !17
  %152 = getelementptr inbounds nuw %struct.fieldnode, ptr %151, i32 0, i32 11
  %153 = load i16, ptr %152, align 8, !tbaa !48
  %154 = sext i16 %153 to i32
  %155 = load ptr, ptr %4, align 8, !tbaa !17
  %156 = getelementptr inbounds nuw %struct.fieldnode, ptr %155, i32 0, i32 20
  %157 = load ptr, ptr %156, align 8, !tbaa !46
  %158 = getelementptr inbounds nuw %struct.formnode, ptr %157, i32 0, i32 9
  %159 = load i16, ptr %158, align 4, !tbaa !49
  %160 = sext i16 %159 to i32
  %161 = icmp eq i32 %154, %160
  br i1 %161, label %162, label %165

162:                                              ; preds = %150
  %163 = load ptr, ptr %4, align 8, !tbaa !17
  %164 = call i32 @Display_Or_Erase_Field(ptr noundef %163, i1 noundef zeroext false)
  store i32 %164, ptr %12, align 4, !tbaa !35
  br label %165

165:                                              ; preds = %162, %150, %144, %135, %130, %124, %115, %106
  br label %245

166:                                              ; preds = %92
  %167 = load ptr, ptr %4, align 8, !tbaa !17
  %168 = getelementptr inbounds nuw %struct.fieldnode, ptr %167, i32 0, i32 7
  %169 = load i32, ptr %168, align 4, !tbaa !62
  %170 = icmp eq i32 %169, 0
  br i1 %170, label %193, label %171

171:                                              ; preds = %166
  %172 = load i8, ptr %11, align 1, !tbaa !58, !range !60, !noundef !61
  %173 = trunc i8 %172 to i1
  br i1 %173, label %174, label %182

174:                                              ; preds = %171
  %175 = load ptr, ptr %4, align 8, !tbaa !17
  %176 = getelementptr inbounds nuw %struct.fieldnode, ptr %175, i32 0, i32 6
  %177 = load i32, ptr %176, align 8, !tbaa !29
  %178 = load ptr, ptr %4, align 8, !tbaa !17
  %179 = getelementptr inbounds nuw %struct.fieldnode, ptr %178, i32 0, i32 7
  %180 = load i32, ptr %179, align 4, !tbaa !62
  %181 = icmp slt i32 %177, %180
  br i1 %181, label %193, label %182

182:                                              ; preds = %174, %171
  %183 = load i8, ptr %11, align 1, !tbaa !58, !range !60, !noundef !61
  %184 = trunc i8 %183 to i1
  br i1 %184, label %244, label %185

185:                                              ; preds = %182
  %186 = load ptr, ptr %4, align 8, !tbaa !17
  %187 = getelementptr inbounds nuw %struct.fieldnode, ptr %186, i32 0, i32 5
  %188 = load i32, ptr %187, align 4, !tbaa !27
  %189 = load ptr, ptr %4, align 8, !tbaa !17
  %190 = getelementptr inbounds nuw %struct.fieldnode, ptr %189, i32 0, i32 7
  %191 = load i32, ptr %190, align 4, !tbaa !62
  %192 = icmp slt i32 %188, %191
  br i1 %192, label %193, label %244

193:                                              ; preds = %185, %174, %166
  %194 = load ptr, ptr %4, align 8, !tbaa !17
  %195 = getelementptr inbounds nuw %struct.fieldnode, ptr %194, i32 0, i32 0
  %196 = load i16, ptr %195, align 8, !tbaa !37
  %197 = zext i16 %196 to i32
  %198 = or i32 %197, 8
  %199 = trunc i32 %198 to i16
  store i16 %199, ptr %195, align 8, !tbaa !37
  %200 = load i8, ptr %11, align 1, !tbaa !58, !range !60, !noundef !61
  %201 = trunc i8 %200 to i1
  br i1 %201, label %202, label %243

202:                                              ; preds = %193
  %203 = load ptr, ptr %4, align 8, !tbaa !17
  %204 = getelementptr inbounds nuw %struct.fieldnode, ptr %203, i32 0, i32 10
  %205 = load i16, ptr %204, align 2, !tbaa !53
  %206 = sext i16 %205 to i32
  %207 = icmp ne i32 %206, 0
  br i1 %207, label %208, label %243

208:                                              ; preds = %202
  %209 = load ptr, ptr %4, align 8, !tbaa !17
  %210 = getelementptr inbounds nuw %struct.fieldnode, ptr %209, i32 0, i32 20
  %211 = load ptr, ptr %210, align 8, !tbaa !46
  %212 = icmp ne ptr %211, null
  br i1 %212, label %213, label %243

213:                                              ; preds = %208
  %214 = load ptr, ptr %4, align 8, !tbaa !17
  %215 = getelementptr inbounds nuw %struct.fieldnode, ptr %214, i32 0, i32 20
  %216 = load ptr, ptr %215, align 8, !tbaa !46
  %217 = getelementptr inbounds nuw %struct.formnode, ptr %216, i32 0, i32 0
  %218 = load i16, ptr %217, align 8, !tbaa !47
  %219 = zext i16 %218 to i32
  %220 = and i32 %219, 1
  %221 = icmp ne i32 %220, 0
  br i1 %221, label %222, label %243

222:                                              ; preds = %213
  %223 = load ptr, ptr %4, align 8, !tbaa !17
  %224 = getelementptr inbounds nuw %struct.fieldnode, ptr %223, i32 0, i32 16
  %225 = load i32, ptr %224, align 8, !tbaa !23
  %226 = and i32 %225, 1
  %227 = icmp ne i32 %226, 0
  br i1 %227, label %228, label %243

228:                                              ; preds = %222
  %229 = load ptr, ptr %4, align 8, !tbaa !17
  %230 = getelementptr inbounds nuw %struct.fieldnode, ptr %229, i32 0, i32 11
  %231 = load i16, ptr %230, align 8, !tbaa !48
  %232 = sext i16 %231 to i32
  %233 = load ptr, ptr %4, align 8, !tbaa !17
  %234 = getelementptr inbounds nuw %struct.fieldnode, ptr %233, i32 0, i32 20
  %235 = load ptr, ptr %234, align 8, !tbaa !46
  %236 = getelementptr inbounds nuw %struct.formnode, ptr %235, i32 0, i32 9
  %237 = load i16, ptr %236, align 4, !tbaa !49
  %238 = sext i16 %237 to i32
  %239 = icmp eq i32 %232, %238
  br i1 %239, label %240, label %243

240:                                              ; preds = %228
  %241 = load ptr, ptr %4, align 8, !tbaa !17
  %242 = call i32 @Display_Or_Erase_Field(ptr noundef %241, i1 noundef zeroext false)
  store i32 %242, ptr %12, align 4, !tbaa !35
  br label %243

243:                                              ; preds = %240, %228, %222, %213, %208, %202, %193
  br label %244

244:                                              ; preds = %243, %185, %182
  br label %245

245:                                              ; preds = %244, %165
  %246 = load i32, ptr %12, align 4, !tbaa !35
  %247 = icmp ne i32 %246, 0
  br i1 %247, label %248, label %250

248:                                              ; preds = %245
  %249 = load i32, ptr %12, align 4, !tbaa !35
  store i32 %249, ptr %9, align 4, !tbaa !35
  br label %250

250:                                              ; preds = %248, %245
  call void @llvm.lifetime.end.p0(i64 4, ptr %12) #9
  call void @llvm.lifetime.end.p0(i64 1, ptr %11) #9
  br label %251

251:                                              ; preds = %250, %88
  %252 = load i32, ptr %9, align 4, !tbaa !35
  store i32 %252, ptr %3, align 4
  store i32 1, ptr %10, align 4
  br label %253

253:                                              ; preds = %251, %37, %15
  call void @llvm.lifetime.end.p0(i64 4, ptr %9) #9
  call void @llvm.lifetime.end.p0(i64 8, ptr %8) #9
  call void @llvm.lifetime.end.p0(i64 4, ptr %7) #9
  call void @llvm.lifetime.end.p0(i64 4, ptr %6) #9
  %254 = load i32, ptr %3, align 4
  ret i32 %254
}