; Function Attrs: nounwind uwtable
define dso_local range(i32 -14, 1) i32 @_nc_Synchronize_Options(ptr noundef %0, i32 noundef %1) local_unnamed_addr #0 {
  %.not = icmp eq ptr %0, null
  br i1 %.not, label %107, label %3

3:                                                ; preds = %2
  %4 = getelementptr inbounds nuw i8, ptr %0, i64 48
  %5 = load i32, ptr %4, align 8, !tbaa !19
  %6 = xor i32 %5, %1
  store i32 %1, ptr %4, align 8, !tbaa !19
  %7 = getelementptr inbounds nuw i8, ptr %0, i64 80
  %8 = load ptr, ptr %7, align 8, !tbaa !44
  %.not63 = icmp eq ptr %8, null
  br i1 %.not63, label %31, label %9

9:                                                ; preds = %3
  %10 = getelementptr inbounds nuw i8, ptr %8, i64 72
  %11 = load ptr, ptr %10, align 8, !tbaa !14
  %12 = icmp eq ptr %11, %0
  br i1 %12, label %13, label %14

13:                                               ; preds = %9
  store i32 %5, ptr %4, align 8, !tbaa !19
  br label %107

14:                                               ; preds = %9
  %15 = load i16, ptr %8, align 8, !tbaa !45
  %16 = and i16 %15, 1
  %.not64 = icmp eq i16 %16, 0
  br i1 %.not64, label %31, label %17

17:                                               ; preds = %14
  %18 = getelementptr inbounds nuw i8, ptr %8, i64 28
  %19 = load i16, ptr %18, align 4, !tbaa !47
  %20 = getelementptr inbounds nuw i8, ptr %0, i64 32
  %21 = load i16, ptr %20, align 8, !tbaa !46
  %22 = icmp eq i16 %19, %21
  br i1 %22, label %23, label %31

23:                                               ; preds = %17
  %24 = and i32 %6, 1
  %.not65 = icmp eq i32 %24, 0
  br i1 %.not65, label %27, label %25

25:                                               ; preds = %23
  %26 = and i32 %1, 1
  %.not68 = icmp eq i32 %26, 0
  br label %.sink.split

27:                                               ; preds = %23
  %28 = and i32 %6, 4
  %.not66 = icmp eq i32 %28, 0
  %29 = and i32 %1, 1
  %.not67 = icmp eq i32 %29, 0
  %or.cond = or i1 %.not67, %.not66
  br i1 %or.cond, label %31, label %.sink.split

.sink.split:                                      ; preds = %27, %25
  %.sink = phi i1 [ %.not68, %25 ], [ false, %27 ]
  %30 = tail call fastcc i32 @Display_Or_Erase_Field(ptr noundef nonnull %0, i1 noundef zeroext %.sink)
  br label %31

31:                                               ; preds = %.sink.split, %14, %27, %17, %3
  %.057 = phi i32 [ 0, %27 ], [ 0, %17 ], [ 0, %14 ], [ 0, %3 ], [ %30, %.sink.split ]
  %32 = and i32 %6, 512
  %.not69 = icmp eq i32 %32, 0
  br i1 %.not69, label %107, label %33

33:                                               ; preds = %31
  %34 = getelementptr inbounds nuw i8, ptr %0, i64 2
  %35 = load i16, ptr %34, align 2, !tbaa !25
  %36 = sext i16 %35 to i32
  %37 = getelementptr inbounds nuw i8, ptr %0, i64 24
  %38 = load i32, ptr %37, align 8, !tbaa !33
  %39 = add nsw i32 %38, %36
  %40 = icmp eq i32 %39, 1
  %41 = and i32 %1, 512
  %.not70 = icmp eq i32 %41, 0
  br i1 %.not70, label %69, label %42

42:                                               ; preds = %33
  %43 = load i16, ptr %0, align 8, !tbaa !34
  %44 = and i16 %43, -9
  store i16 %44, ptr %0, align 8, !tbaa !34
  br i1 %40, label %45, label %.thread81

45:                                               ; preds = %42
  %46 = getelementptr inbounds nuw i8, ptr %0, i64 4
  %47 = load i16, ptr %46, align 4, !tbaa !27
  %48 = sext i16 %47 to i32
  %49 = getelementptr inbounds nuw i8, ptr %0, i64 16
  %50 = load i32, ptr %49, align 8, !tbaa !26
  %51 = icmp eq i32 %50, %48
  br i1 %51, label %52, label %.thread81

52:                                               ; preds = %45
  %53 = getelementptr inbounds nuw i8, ptr %0, i64 30
  %54 = load i16, ptr %53, align 2, !tbaa !51
  %.not75 = icmp eq i16 %54, 0
  br i1 %.not75, label %.thread81, label %55

55:                                               ; preds = %52
  %56 = load ptr, ptr %7, align 8, !tbaa !44
  %.not76 = icmp eq ptr %56, null
  br i1 %.not76, label %.thread81, label %57

57:                                               ; preds = %55
  %58 = load i16, ptr %56, align 8, !tbaa !45
  %59 = and i16 %58, 1
  %.not77 = icmp eq i16 %59, 0
  br i1 %.not77, label %.thread81, label %60

60:                                               ; preds = %57
  %61 = load i32, ptr %4, align 8, !tbaa !19
  %62 = and i32 %61, 1
  %.not78 = icmp eq i32 %62, 0
  br i1 %.not78, label %.thread81, label %63

63:                                               ; preds = %60
  %64 = getelementptr inbounds nuw i8, ptr %0, i64 32
  %65 = load i16, ptr %64, align 8, !tbaa !46
  %66 = getelementptr inbounds nuw i8, ptr %56, i64 28
  %67 = load i16, ptr %66, align 4, !tbaa !47
  %68 = icmp eq i16 %65, %67
  br i1 %68, label %105, label %.thread81

69:                                               ; preds = %33
  %70 = getelementptr inbounds nuw i8, ptr %0, i64 20
  %71 = load i32, ptr %70, align 4, !tbaa !61
  %72 = icmp eq i32 %71, 0
  br i1 %72, label %85, label %73

73:                                               ; preds = %69
  br i1 %40, label %74, label %.critedge

74:                                               ; preds = %73
  %75 = getelementptr inbounds nuw i8, ptr %0, i64 16
  %76 = load i32, ptr %75, align 8, !tbaa !26
  %77 = icmp slt i32 %76, %71
  br i1 %77, label %.thread, label %.thread81

.thread:                                          ; preds = %74
  %78 = load i16, ptr %0, align 8, !tbaa !34
  %79 = or i16 %78, 8
  store i16 %79, ptr %0, align 8, !tbaa !34
  br label %88

.critedge:                                        ; preds = %73
  %80 = getelementptr inbounds nuw i8, ptr %0, i64 12
  %81 = load i32, ptr %80, align 4, !tbaa !24
  %82 = icmp slt i32 %81, %71
  br i1 %82, label %.thread80, label %.thread81

.thread80:                                        ; preds = %.critedge
  %83 = load i16, ptr %0, align 8, !tbaa !34
  %84 = or i16 %83, 8
  store i16 %84, ptr %0, align 8, !tbaa !34
  br label %.thread81

85:                                               ; preds = %69
  %86 = load i16, ptr %0, align 8, !tbaa !34
  %87 = or i16 %86, 8
  store i16 %87, ptr %0, align 8, !tbaa !34
  br i1 %40, label %88, label %.thread81

88:                                               ; preds = %.thread, %85
  %89 = getelementptr inbounds nuw i8, ptr %0, i64 30
  %90 = load i16, ptr %89, align 2, !tbaa !51
  %.not71 = icmp eq i16 %90, 0
  br i1 %.not71, label %.thread81, label %91

91:                                               ; preds = %88
  %92 = load ptr, ptr %7, align 8, !tbaa !44
  %.not72 = icmp eq ptr %92, null
  br i1 %.not72, label %.thread81, label %93

93:                                               ; preds = %91
  %94 = load i16, ptr %92, align 8, !tbaa !45
  %95 = and i16 %94, 1
  %.not73 = icmp eq i16 %95, 0
  br i1 %.not73, label %.thread81, label %96

96:                                               ; preds = %93
  %97 = load i32, ptr %4, align 8, !tbaa !19
  %98 = and i32 %97, 1
  %.not74 = icmp eq i32 %98, 0
  br i1 %.not74, label %.thread81, label %99

99:                                               ; preds = %96
  %100 = getelementptr inbounds nuw i8, ptr %0, i64 32
  %101 = load i16, ptr %100, align 8, !tbaa !46
  %102 = getelementptr inbounds nuw i8, ptr %92, i64 28
  %103 = load i16, ptr %102, align 4, !tbaa !47
  %104 = icmp eq i16 %101, %103
  br i1 %104, label %105, label %.thread81

105:                                              ; preds = %99, %63
  %106 = tail call fastcc i32 @Display_Or_Erase_Field(ptr noundef nonnull %0, i1 noundef zeroext false)
  %.0.fr = freeze i32 %106
  %.not79 = icmp eq i32 %.0.fr, 0
  br i1 %.not79, label %.thread81, label %107

.thread81:                                        ; preds = %.thread80, %74, %.critedge, %85, %88, %91, %93, %96, %99, %42, %45, %52, %55, %57, %60, %63, %105
  br label %107

107:                                              ; preds = %.thread81, %105, %31, %2, %13
  %.056 = phi i32 [ -14, %13 ], [ -2, %2 ], [ %.057, %31 ], [ %.057, %.thread81 ], [ -1, %105 ]
  ret i32 %.056
}